target datalayout = "e-m:e-p270:32:32-p271:32:32-p272:64:64-i64:64-i128:128-f80:128-n8:16:32:64-S128"
target triple = "x86_64-pc-linux-gnu"

; Function Attrs: mustprogress uwtable
define internal noundef i32 @_ZL8foreachiP9lua_State(ptr noundef %0) #0 {
  %2 = alloca i32, align 4
  %3 = alloca ptr, align 8
  %4 = alloca i32, align 4
  %5 = alloca i32, align 4
  %6 = alloca i32, align 4
  store ptr %0, ptr %3, align 8, !tbaa !4
  %7 = load ptr, ptr %3, align 8, !tbaa !4
  call void @_Z14luaL_checktypeP9lua_Stateii(ptr noundef %7, i32 noundef 1, i32 noundef 6)
  %8 = load ptr, ptr %3, align 8, !tbaa !4
  call void @_Z14luaL_checktypeP9lua_Stateii(ptr noundef %8, i32 noundef 2, i32 noundef 7)
  call void @llvm.lifetime.start.p0(i64 4, ptr %4) #7
  call void @llvm.lifetime.start.p0(i64 4, ptr %5) #7
  %9 = load ptr, ptr %3, align 8, !tbaa !4
  %10 = call noundef i32 @_Z10lua_objlenP9lua_Statei(ptr noundef %9, i32 noundef 1)
  store i32 %10, ptr %5, align 4, !tbaa !23
  store i32 1, ptr %4, align 4, !tbaa !23
  br label %11

11:                                               ; preds = %29, %1
  %12 = load i32, ptr %4, align 4, !tbaa !23
  %13 = load i32, ptr %5, align 4, !tbaa !23
  %14 = icmp sle i32 %12, %13
  br i1 %14, label %15, label %32

15:                                               ; preds = %11
  %16 = load ptr, ptr %3, align 8, !tbaa !4
  call void @_Z13lua_pushvalueP9lua_Statei(ptr noundef %16, i32 noundef 2)
  %17 = load ptr, ptr %3, align 8, !tbaa !4
  %18 = load i32, ptr %4, align 4, !tbaa !23
  call void @_Z15lua_pushintegerP9lua_Statei(ptr noundef %17, i32 noundef %18)
  %19 = load ptr, ptr %3, align 8, !tbaa !4
  %20 = load i32, ptr %4, align 4, !tbaa !23
  %21 = call noundef i32 @_Z11lua_rawgetiP9lua_Stateii(ptr noundef %19, i32 noundef 1, i32 noundef %20)
  %22 = load ptr, ptr %3, align 8, !tbaa !4
  call void @_Z8lua_callP9lua_Stateii(ptr noundef %22, i32 noundef 2, i32 noundef 1)
  %23 = load ptr, ptr %3, align 8, !tbaa !4
  %24 = call noundef i32 @_Z8lua_typeP9lua_Statei(ptr noundef %23, i32 noundef -1)
  %25 = icmp eq i32 %24, 0
  br i1 %25, label %27, label %26

26:                                               ; preds = %15
  store i32 1, ptr %2, align 4
  store i32 1, ptr %6, align 4
  br label %33

27:                                               ; preds = %15
  %28 = load ptr, ptr %3, align 8, !tbaa !4
  call void @_Z10lua_settopP9lua_Statei(ptr noundef %28, i32 noundef -2)
  br label %29

29:                                               ; preds = %27
  %30 = load i32, ptr %4, align 4, !tbaa !23
  %31 = add nsw i32 %30, 1
  store i32 %31, ptr %4, align 4, !tbaa !23
  br label %11, !llvm.loop !40

32:                                               ; preds = %11
  store i32 0, ptr %2, align 4
  store i32 1, ptr %6, align 4
  br label %33

33:                                               ; preds = %32, %26
  call void @llvm.lifetime.end.p0(i64 4, ptr %5) #7
  call void @llvm.lifetime.end.p0(i64 4, ptr %4) #7
  %34 = load i32, ptr %2, align 4
  ret i32 %34
}