; Function Attrs: mustprogress uwtable
define internal noundef range(i32 0, 2) i32 @_ZL8foreachiP9lua_State(ptr noundef %0) #0 {
  tail call void @_Z14luaL_checktypeP9lua_Stateii(ptr noundef %0, i32 noundef 1, i32 noundef 6)
  tail call void @_Z14luaL_checktypeP9lua_Stateii(ptr noundef %0, i32 noundef 2, i32 noundef 7)
  %2 = tail call noundef i32 @_Z10lua_objlenP9lua_Statei(ptr noundef %0, i32 noundef 1)
  %.not15 = icmp slt i32 %2, 1
  br i1 %.not15, label %._crit_edge, label %.lr.ph

.lr.ph:                                           ; preds = %1, %6
  %.01416 = phi i32 [ %7, %6 ], [ 1, %1 ]
  tail call void @_Z13lua_pushvalueP9lua_Statei(ptr noundef %0, i32 noundef 2)
  tail call void @_Z15lua_pushintegerP9lua_Statei(ptr noundef %0, i32 noundef %.01416)
  %3 = tail call noundef i32 @_Z11lua_rawgetiP9lua_Stateii(ptr noundef %0, i32 noundef 1, i32 noundef %.01416)
  tail call void @_Z8lua_callP9lua_Stateii(ptr noundef %0, i32 noundef 2, i32 noundef 1)
  %4 = tail call noundef i32 @_Z8lua_typeP9lua_Statei(ptr noundef %0, i32 noundef -1)
  %5 = icmp eq i32 %4, 0
  br i1 %5, label %6, label %._crit_edge

6:                                                ; preds = %.lr.ph
  tail call void @_Z10lua_settopP9lua_Statei(ptr noundef %0, i32 noundef -2)
  %7 = add nuw i32 %.01416, 1
  %exitcond.not = icmp eq i32 %.01416, %2
  br i1 %exitcond.not, label %._crit_edge, label %.lr.ph, !llvm.loop !34

._crit_edge:                                      ; preds = %.lr.ph, %6, %1
  %.0 = phi i32 [ 0, %1 ], [ 0, %6 ], [ 1, %.lr.ph ]
  ret i32 %.0
}